(dp0
S'TV8'
p1
(lp2
F188000000.0
aF195000000.0
asS'TV7'
p3
(lp4
F181000000.0
aF188000000.0
asS'TV6'
p5
(lp6
F174000000.0
aF181000000.0
asS'broad6'
p7
(lp8
F172000000.0
aF183000000.0
asS'broad7'
p9
(lp10
F179000000.0
aF190000000.0
asS'broad8'
p11
(lp12
F186000000.0
aF197000000.0
as.